; Function Attrs: nounwind uwtable
define hidden void @phar_metadata_tracker_copy(ptr noundef %0, ptr noundef readonly %1, i32 noundef %2) local_unnamed_addr #0 {
  %4 = alloca %struct._zval_struct, align 8
  %5 = icmp ne ptr %0, %1
  tail call void @llvm.assume(i1 %5)
  call void @llvm.lifetime.start.p0(i64 16, ptr nonnull %4)
  %6 = getelementptr inbounds i8, ptr %0, i64 16
  %7 = load ptr, ptr %6, align 8
  %.not.i = icmp eq ptr %7, null
  br i1 %.not.i, label %22, label %8

8:                                                ; preds = %3
  %9 = getelementptr inbounds i8, ptr %7, i64 4
  %10 = load i32, ptr %9, align 4
  %11 = and i32 %10, 64
  %.not22.i = icmp eq i32 %11, 0
  br i1 %.not22.i, label %12, label %21

12:                                               ; preds = %8
  %13 = load i32, ptr %7, align 4
  %14 = icmp ne i32 %13, 0
  tail call void @llvm.assume(i1 %14)
  %15 = add i32 %13, -1
  store i32 %15, ptr %7, align 4
  %16 = icmp eq i32 %15, 0
  br i1 %16, label %17, label %21

17:                                               ; preds = %12
  %18 = and i32 %10, 128
  %.not23.i = icmp eq i32 %18, 0
  br i1 %.not23.i, label %20, label %19

19:                                               ; preds = %17
  tail call void @free(ptr noundef nonnull %7) #23
  br label %21

20:                                               ; preds = %17
  tail call void @_efree(ptr noundef nonnull %7) #23
  br label %21

21:                                               ; preds = %20, %19, %12, %8
  store ptr null, ptr %6, align 8
  br label %22

22:                                               ; preds = %21, %3
  %23 = getelementptr inbounds i8, ptr %0, i64 8
  %24 = load i8, ptr %23, align 8
  %25 = icmp eq i8 %24, 0
  br i1 %25, label %phar_metadata_tracker_free.exit, label %26

26:                                               ; preds = %22
  %.not24.i = icmp eq i32 %2, 0
  tail call void @llvm.assume(i1 %.not24.i)
  %27 = load ptr, ptr %0, align 8
  %28 = load i32, ptr %23, align 8
  store ptr %27, ptr %4, align 8
  %29 = getelementptr inbounds i8, ptr %4, i64 8
  store i32 %28, ptr %29, align 8
  store i32 0, ptr %23, align 8
  call void @zval_ptr_dtor(ptr noundef nonnull %4) #23
  br label %phar_metadata_tracker_free.exit

phar_metadata_tracker_free.exit:                  ; preds = %22, %26
  call void @llvm.lifetime.end.p0(i64 16, ptr nonnull %4)
  %30 = getelementptr inbounds i8, ptr %1, i64 8
  %31 = load i8, ptr %30, align 8
  %32 = icmp eq i8 %31, 0
  br i1 %32, label %40, label %33

33:                                               ; preds = %phar_metadata_tracker_free.exit
  %.not = icmp eq i32 %2, 0
  call void @llvm.assume(i1 %.not)
  %34 = load ptr, ptr %1, align 8
  %35 = load i32, ptr %30, align 8
  store ptr %34, ptr %0, align 8
  store i32 %35, ptr %23, align 8
  %36 = and i32 %35, 65280
  %.not25 = icmp eq i32 %36, 0
  br i1 %.not25, label %40, label %37

37:                                               ; preds = %33
  %38 = load i32, ptr %34, align 4
  %39 = add i32 %38, 1
  store i32 %39, ptr %34, align 4
  br label %40

40:                                               ; preds = %37, %33, %phar_metadata_tracker_free.exit
  %41 = getelementptr inbounds i8, ptr %1, i64 16
  %42 = load ptr, ptr %41, align 8
  %.not26 = icmp eq ptr %42, null
  br i1 %.not26, label %51, label %43

43:                                               ; preds = %40
  %44 = getelementptr inbounds i8, ptr %42, i64 4
  %45 = load i32, ptr %44, align 4
  %46 = and i32 %45, 64
  %.not27 = icmp eq i32 %46, 0
  br i1 %.not27, label %47, label %50

47:                                               ; preds = %43
  %48 = load i32, ptr %42, align 4
  %49 = add i32 %48, 1
  store i32 %49, ptr %42, align 4
  br label %50

50:                                               ; preds = %47, %43
  store ptr %42, ptr %6, align 8
  br label %51

51:                                               ; preds = %50, %40
  ret void
}